target datalayout = "e-m:e-p270:32:32-p271:32:32-p272:64:64-i64:64-i128:128-f80:128-n8:16:32:64-S128"
target triple = "x86_64-pc-linux-gnu"

%class.MemReporterBase = type { i64, ptr, %class.StreamAutoIndentor }
%class.StreamAutoIndentor = type <{ ptr, i8, [7 x i8] }>

; Function Attrs: mustprogress nounwind uwtable
define linkonce_odr hidden void @_ZN18StreamAutoIndentorC2EP12outputStream(ptr noundef nonnull align 8 dereferenceable(9) %0, ptr noundef %1) unnamed_addr #1 comdat align 2 {
  %3 = alloca ptr, align 8
  %4 = alloca ptr, align 8
  store ptr %0, ptr %3, align 8
  store ptr %1, ptr %4, align 8
  %5 = load ptr, ptr %3, align 8
  %6 = getelementptr inbounds %class.StreamAutoIndentor, ptr %5, i32 0, i32 0
  %7 = load ptr, ptr %4, align 8
  store ptr %7, ptr %6, align 8
  %8 = getelementptr inbounds %class.StreamAutoIndentor, ptr %5, i32 0, i32 1
  %9 = load ptr, ptr %4, align 8
  %10 = call noundef zeroext i1 @_ZN12outputStream14set_autoindentEb(ptr noundef nonnull align 8 dereferenceable(56) %9, i1 noundef zeroext true)
  %11 = zext i1 %10 to i8
  store i8 %11, ptr %8, align 8
  ret void
}

; Function Attrs: mustprogress nounwind uwtable
define hidden void @_ZN15MemReporterBaseC2EP12outputStreamm(ptr noundef nonnull align 8 dereferenceable(32) %0, ptr noundef %1, i64 noundef %2) unnamed_addr #1 align 2 {
  %4 = alloca ptr, align 8
  %5 = alloca ptr, align 8
  %6 = alloca i64, align 8
  store ptr %0, ptr %4, align 8
  store ptr %1, ptr %5, align 8
  store i64 %2, ptr %6, align 8
  %7 = load ptr, ptr %4, align 8
  %8 = getelementptr inbounds %class.MemReporterBase, ptr %7, i32 0, i32 0
  %9 = load i64, ptr %6, align 8
  store i64 %9, ptr %8, align 8
  %10 = getelementptr inbounds %class.MemReporterBase, ptr %7, i32 0, i32 1
  %11 = load ptr, ptr %5, align 8
  store ptr %11, ptr %10, align 8
  %12 = getelementptr inbounds %class.MemReporterBase, ptr %7, i32 0, i32 2
  %13 = load ptr, ptr %5, align 8
  call void @_ZN18StreamAutoIndentorC2EP12outputStream(ptr noundef nonnull align 8 dereferenceable(9) %12, ptr noundef %13)
  ret void
}