; Function Attrs: mustprogress nounwind uwtable
define hidden void @_ZN15MemReporterBaseC2EP12outputStreamm(ptr nocapture noundef nonnull writeonly align 8 dereferenceable(32) %0, ptr noundef nonnull %1, i64 noundef %2) unnamed_addr #0 align 2 {
  store i64 %2, ptr %0, align 8
  %4 = getelementptr inbounds i8, ptr %0, i64 8
  store ptr %1, ptr %4, align 8
  %5 = getelementptr inbounds i8, ptr %0, i64 16
  store ptr %1, ptr %5, align 8
  %6 = getelementptr inbounds i8, ptr %0, i64 24
  %7 = tail call noundef zeroext i1 @_ZN12outputStream14set_autoindentEb(ptr noundef nonnull align 8 dereferenceable(56) %1, i1 noundef zeroext true) #7
  %8 = zext i1 %7 to i8
  store i8 %8, ptr %6, align 8
  ret void
}